target datalayout = "e-m:e-p270:32:32-p271:32:32-p272:64:64-i64:64-i128:128-f80:128-n8:16:32:64-S128"
target triple = "x86_64-unknown-linux-gnu"

%"class.std::__weak_count" = type { ptr }
%"class.std::weak_ptr.460" = type { %"class.std::__weak_ptr.461" }
%"class.std::__weak_ptr.461" = type { ptr, %"class.std::__weak_count" }
%"class.std::_Sp_counted_base" = type { ptr, i32, i32 }
%"class.node::inspector::protocol::(anonymous namespace)::DeletableFrontendWrapper" = type { %"class.node::inspector::Deletable", %"class.std::weak_ptr.460" }
%"class.node::inspector::Deletable" = type { ptr }

@__libc_single_threaded = external global i8, align 1

; Function Attrs: mustprogress nounwind uwtable
define linkonce_odr dso_local void @_ZNSt16_Sp_counted_baseILN9__gnu_cxx12_Lock_policyE2EE15_M_weak_releaseEv(ptr noundef nonnull align 8 dereferenceable(16) %this) #4 comdat align 2 {
entry:
  %__mem.addr.i4 = alloca ptr, align 8
  %__val.addr.i5 = alloca i32, align 4
  %.atomictmp.i = alloca i32, align 4
  %atomic-temp.i = alloca i32, align 4
  %__mem.addr.i2 = alloca ptr, align 8
  %__val.addr.i3 = alloca i32, align 4
  %__result.i = alloca i32, align 4
  %retval.i = alloca i32, align 4
  %__mem.addr.i = alloca ptr, align 8
  %__val.addr.i = alloca i32, align 4
  %this.addr = alloca ptr, align 8
  store ptr %this, ptr %this.addr, align 8
  %this1 = load ptr, ptr %this.addr, align 8
  %_M_weak_count = getelementptr inbounds %"class.std::_Sp_counted_base", ptr %this1, i32 0, i32 2
  store ptr %_M_weak_count, ptr %__mem.addr.i, align 8
  store i32 -1, ptr %__val.addr.i, align 4
  %0 = load i8, ptr @__libc_single_threaded, align 1
  %tobool.i.i = icmp ne i8 %0, 0
  br i1 %tobool.i.i, label %if.then.i, label %if.else.i

if.then.i:                                        ; preds = %entry
  %1 = load ptr, ptr %__mem.addr.i, align 8
  %2 = load i32, ptr %__val.addr.i, align 4
  store ptr %1, ptr %__mem.addr.i2, align 8
  store i32 %2, ptr %__val.addr.i3, align 4
  %3 = load ptr, ptr %__mem.addr.i2, align 8
  %4 = load i32, ptr %3, align 4
  store i32 %4, ptr %__result.i, align 4
  %5 = load i32, ptr %__val.addr.i3, align 4
  %6 = load ptr, ptr %__mem.addr.i2, align 8
  %7 = load i32, ptr %6, align 4
  %add.i = add nsw i32 %7, %5
  store i32 %add.i, ptr %6, align 4
  %8 = load i32, ptr %__result.i, align 4
  store i32 %8, ptr %retval.i, align 4
  br label %_ZN9__gnu_cxx27__exchange_and_add_dispatchEPii.exit

if.else.i:                                        ; preds = %entry
  %9 = load ptr, ptr %__mem.addr.i, align 8
  %10 = load i32, ptr %__val.addr.i, align 4
  store ptr %9, ptr %__mem.addr.i4, align 8
  store i32 %10, ptr %__val.addr.i5, align 4
  %11 = load ptr, ptr %__mem.addr.i4, align 8
  %12 = load i32, ptr %__val.addr.i5, align 4
  store i32 %12, ptr %.atomictmp.i, align 4
  %13 = load i32, ptr %.atomictmp.i, align 4
  %14 = atomicrmw volatile add ptr %11, i32 %13 acq_rel, align 4
  store i32 %14, ptr %atomic-temp.i, align 4
  %15 = load i32, ptr %atomic-temp.i, align 4
  store i32 %15, ptr %retval.i, align 4
  br label %_ZN9__gnu_cxx27__exchange_and_add_dispatchEPii.exit

_ZN9__gnu_cxx27__exchange_and_add_dispatchEPii.exit: ; preds = %if.else.i, %if.then.i
  %16 = load i32, ptr %retval.i, align 4
  %cmp = icmp eq i32 %16, 1
  br i1 %cmp, label %if.then, label %if.end

if.then:                                          ; preds = %_ZN9__gnu_cxx27__exchange_and_add_dispatchEPii.exit
  %vtable = load ptr, ptr %this1, align 8
  %vfn = getelementptr inbounds ptr, ptr %vtable, i64 3
  %17 = load ptr, ptr %vfn, align 8
  call void %17(ptr noundef nonnull align 8 dereferenceable(16) %this1) #3
  br label %if.end

if.end:                                           ; preds = %if.then, %_ZN9__gnu_cxx27__exchange_and_add_dispatchEPii.exit
  ret void
}

; Function Attrs: mustprogress nounwind uwtable
define linkonce_odr dso_local void @_ZNSt12__weak_countILN9__gnu_cxx12_Lock_policyE2EED2Ev(ptr noundef nonnull align 8 dereferenceable(8) %this) unnamed_addr #4 comdat align 2 {
entry:
  %this.addr = alloca ptr, align 8
  store ptr %this, ptr %this.addr, align 8
  %this1 = load ptr, ptr %this.addr, align 8
  %_M_pi = getelementptr inbounds %"class.std::__weak_count", ptr %this1, i32 0, i32 0
  %0 = load ptr, ptr %_M_pi, align 8
  %cmp = icmp ne ptr %0, null
  br i1 %cmp, label %if.then, label %if.end

if.then:                                          ; preds = %entry
  %_M_pi2 = getelementptr inbounds %"class.std::__weak_count", ptr %this1, i32 0, i32 0
  %1 = load ptr, ptr %_M_pi2, align 8
  call void @_ZNSt16_Sp_counted_baseILN9__gnu_cxx12_Lock_policyE2EE15_M_weak_releaseEv(ptr noundef nonnull align 8 dereferenceable(16) %1) #3
  br label %if.end

if.end:                                           ; preds = %if.then, %entry
  ret void
}

; Function Attrs: mustprogress nounwind uwtable
define linkonce_odr dso_local void @_ZNSt10__weak_ptrIN4node9inspector8protocol11NodeTracing8FrontendELN9__gnu_cxx12_Lock_policyE2EED2Ev(ptr noundef nonnull align 8 dereferenceable(16) %this) unnamed_addr #4 comdat align 2 {
entry:
  %this.addr = alloca ptr, align 8
  store ptr %this, ptr %this.addr, align 8
  %this1 = load ptr, ptr %this.addr, align 8
  %_M_refcount = getelementptr inbounds %"class.std::__weak_ptr.461", ptr %this1, i32 0, i32 1
  call void @_ZNSt12__weak_countILN9__gnu_cxx12_Lock_policyE2EED2Ev(ptr noundef nonnull align 8 dereferenceable(8) %_M_refcount) #3
  ret void
}

; Function Attrs: mustprogress nounwind uwtable
define linkonce_odr dso_local void @_ZN4node9inspector9DeletableD2Ev(ptr noundef nonnull align 8 dereferenceable(8) %this) unnamed_addr #4 comdat align 2 {
entry:
  %this.addr = alloca ptr, align 8
  store ptr %this, ptr %this.addr, align 8
  ret void
}

; Function Attrs: mustprogress nounwind uwtable
define linkonce_odr dso_local void @_ZNSt8weak_ptrIN4node9inspector8protocol11NodeTracing8FrontendEED2Ev(ptr noundef nonnull align 8 dereferenceable(16) %this) unnamed_addr #4 comdat align 2 {
entry:
  %this.addr = alloca ptr, align 8
  store ptr %this, ptr %this.addr, align 8
  %this1 = load ptr, ptr %this.addr, align 8
  call void @_ZNSt10__weak_ptrIN4node9inspector8protocol11NodeTracing8FrontendELN9__gnu_cxx12_Lock_policyE2EED2Ev(ptr noundef nonnull align 8 dereferenceable(16) %this1) #3
  ret void
}

; Function Attrs: mustprogress nounwind uwtable
define internal void @_ZN4node9inspector8protocol12_GLOBAL__N_124DeletableFrontendWrapperD2Ev(ptr noundef nonnull align 8 dereferenceable(24) %this) unnamed_addr #4 align 2 {
entry:
  %this.addr = alloca ptr, align 8
  store ptr %this, ptr %this.addr, align 8
  %this1 = load ptr, ptr %this.addr, align 8
  store ptr getelementptr inbounds ({ [4 x ptr] }, ptr @_ZTVN4node9inspector8protocol12_GLOBAL__N_124DeletableFrontendWrapperE, i32 0, i32 0, i32 2), ptr %this1, align 8
  %frontend_ = getelementptr inbounds %"class.node::inspector::protocol::(anonymous namespace)::DeletableFrontendWrapper", ptr %this1, i32 0, i32 1
  call void @_ZNSt8weak_ptrIN4node9inspector8protocol11NodeTracing8FrontendEED2Ev(ptr noundef nonnull align 8 dereferenceable(16) %frontend_) #3
  call void @_ZN4node9inspector9DeletableD2Ev(ptr noundef nonnull align 8 dereferenceable(8) %this1) #3
  ret void
}